; Function Attrs: mustprogress nounwind uwtable
define hidden void @_ZN27JvmtiEventControllerPrivate13set_frame_popEP19JvmtiEnvThreadState13JvmtiFramePop(ptr noundef %0, i32 %1) local_unnamed_addr #3 align 2 {
  %3 = alloca %class.JvmtiFramePop, align 4
  store i32 %1, ptr %3, align 4
  %4 = load i8, ptr @_ZN10JvmtiTrace23_trace_event_controllerE, align 1
  %5 = trunc i8 %4 to i1
  br i1 %5, label %6, label %_ZN16SafeResourceMarkD2Ev.exit

6:                                                ; preds = %2
  %7 = load i32, ptr @_ZN7Threads18_number_of_threadsE, align 4
  %8 = icmp eq i32 %7, 0
  br i1 %8, label %9, label %11

9:                                                ; preds = %6
  %10 = tail call noundef ptr @_ZN9JvmtiUtil29single_threaded_resource_areaEv() #15
  br label %_ZN16SafeResourceMarkC2Ev.exit

11:                                               ; preds = %6
  %12 = tail call align 8 ptr @llvm.threadlocal.address.p0(ptr align 8 @_ZN6Thread12_thr_currentE)
  %13 = load ptr, ptr %12, align 8
  %14 = icmp eq ptr %13, null
  br i1 %14, label %15, label %17

15:                                               ; preds = %11
  %16 = tail call noundef ptr @_ZN9JvmtiUtil29single_threaded_resource_areaEv() #15
  br label %_ZN16SafeResourceMarkC2Ev.exit

17:                                               ; preds = %11
  %18 = getelementptr inbounds i8, ptr %13, i64 800
  %19 = load ptr, ptr %18, align 8
  br label %_ZN16SafeResourceMarkC2Ev.exit

_ZN16SafeResourceMarkC2Ev.exit:                   ; preds = %9, %15, %17
  %.0.i.i = phi ptr [ %10, %9 ], [ %16, %15 ], [ %19, %17 ]
  %20 = getelementptr inbounds i8, ptr %.0.i.i, i64 24
  %21 = load ptr, ptr %20, align 8
  %22 = getelementptr inbounds i8, ptr %.0.i.i, i64 32
  %23 = load ptr, ptr %22, align 8
  %24 = getelementptr inbounds i8, ptr %.0.i.i, i64 40
  %25 = load ptr, ptr %24, align 8
  %26 = getelementptr inbounds i8, ptr %.0.i.i, i64 8
  %27 = load i64, ptr %26, align 8
  %28 = load volatile ptr, ptr getelementptr inbounds (i8, ptr @_ZN16LogTagSetMappingILN6LogTag4typeE69ELS1_0ELS1_0ELS1_0ELS1_0ELS1_0EE7_tagsetE, i64 48), align 8
  %.not = icmp eq ptr %28, null
  br i1 %.not, label %32, label %29

29:                                               ; preds = %_ZN16SafeResourceMarkC2Ev.exit
  %30 = tail call noundef ptr @_ZN19JvmtiEnvThreadState19get_thread_or_savedEv(ptr noundef nonnull align 8 dereferenceable(72) %0) #15
  %31 = tail call noundef ptr @_ZN10JvmtiTrace20safe_get_thread_nameEP6Thread(ptr noundef %30) #15
  tail call void (ptr, ...) @_ZN7LogImplILN6LogTag4typeE69ELS1_0ELS1_0ELS1_0ELS1_0ELS1_0EE5writeILN8LogLevel4typeE1EEEvPKcz(ptr noundef nonnull @.str.27, ptr noundef %31, i32 noundef %1)
  br label %32

32:                                               ; preds = %_ZN16SafeResourceMarkC2Ev.exit, %29
  %33 = load ptr, ptr %21, align 8
  %.not.i.i.i.i.i = icmp eq ptr %33, null
  br i1 %.not.i.i.i.i.i, label %35, label %34

34:                                               ; preds = %32
  tail call void @_ZN5Arena17set_size_in_bytesEm(ptr noundef nonnull align 8 dereferenceable(48) %.0.i.i, i64 noundef %27) #15
  tail call void @_ZN5Chunk9next_chopEPS_(ptr noundef nonnull %21) #15
  br label %35

35:                                               ; preds = %34, %32
  %36 = load ptr, ptr %22, align 8
  %.not8.i.i.i.i.i = icmp eq ptr %36, %23
  br i1 %.not8.i.i.i.i.i, label %_ZN16SafeResourceMarkD2Ev.exit, label %37

37:                                               ; preds = %35
  store ptr %21, ptr %20, align 8
  store ptr %23, ptr %22, align 8
  store ptr %25, ptr %24, align 8
  br label %_ZN16SafeResourceMarkD2Ev.exit

_ZN16SafeResourceMarkD2Ev.exit:                   ; preds = %37, %35, %2
  %38 = tail call noundef ptr @_ZN19JvmtiEnvThreadState14get_frame_popsEv(ptr noundef nonnull align 8 dereferenceable(72) %0) #15
  call void @_ZN14JvmtiFramePops3setER13JvmtiFramePop(ptr noundef nonnull align 8 dereferenceable(8) %38, ptr noundef nonnull align 4 dereferenceable(4) %3) #15
  %39 = load ptr, ptr %0, align 8
  %40 = call noundef i64 @_ZN27JvmtiEventControllerPrivate24recompute_thread_enabledEP16JvmtiThreadState(ptr noundef %39)
  ret void
}